; Function Attrs: mustprogress nounwind uwtable
define void @_ZN7testing11ScopedTraceD2Ev(ptr nonnull readnone align 1 captures(none) %0) unnamed_addr #10 align 2 personality ptr @__gxx_personality_v0 {
  %2 = load atomic i8, ptr @_ZGVZN7testing8UnitTest11GetInstanceEvE8instance acquire, align 8
  %3 = icmp eq i8 %2, 0
  br i1 %3, label %4, label %_ZN7testing8UnitTest11GetInstanceEv.exit, !prof !46

4:                                                ; preds = %1
  %5 = tail call i32 @__cxa_guard_acquire(ptr nonnull @_ZGVZN7testing8UnitTest11GetInstanceEvE8instance) #57
  %.not.i = icmp eq i32 %5, 0
  br i1 %.not.i, label %_ZN7testing8UnitTest11GetInstanceEv.exit, label %6

6:                                                ; preds = %4
  invoke void @_ZN7testing8UnitTestC1Ev(ptr noundef nonnull align 8 dereferenceable(72) @_ZZN7testing8UnitTest11GetInstanceEvE8instance)
          to label %7 unwind label %9

7:                                                ; preds = %6
  %8 = tail call i32 @__cxa_atexit(ptr nonnull @_ZN7testing8UnitTestD1Ev, ptr nonnull @_ZZN7testing8UnitTest11GetInstanceEvE8instance, ptr nonnull @__dso_handle) #57
  tail call void @__cxa_guard_release(ptr nonnull @_ZGVZN7testing8UnitTest11GetInstanceEvE8instance) #57
  br label %_ZN7testing8UnitTest11GetInstanceEv.exit

9:                                                ; preds = %6
  %10 = landingpad { ptr, i32 }
          catch ptr null
  tail call void @__cxa_guard_abort(ptr nonnull @_ZGVZN7testing8UnitTest11GetInstanceEvE8instance) #57
  br label %.body

_ZN7testing8UnitTest11GetInstanceEv.exit:         ; preds = %7, %4, %1
  invoke void @_ZN7testing8UnitTest13PopGTestTraceEv(ptr noundef nonnull align 8 dereferenceable(72) @_ZZN7testing8UnitTest11GetInstanceEvE8instance)
          to label %11 unwind label %12

11:                                               ; preds = %_ZN7testing8UnitTest11GetInstanceEv.exit
  ret void

12:                                               ; preds = %_ZN7testing8UnitTest11GetInstanceEv.exit
  %13 = landingpad { ptr, i32 }
          catch ptr null
  br label %.body

.body:                                            ; preds = %9, %12
  %eh.lpad-body = phi { ptr, i32 } [ %13, %12 ], [ %10, %9 ]
  %14 = extractvalue { ptr, i32 } %eh.lpad-body, 0
  tail call void @__clang_call_terminate(ptr %14) #62
  unreachable
}